; Function Attrs: mustprogress uwtable
define dso_local void @_ZN19cmFindLibraryHelper13RegexFromListERNSt7__cxx1112basic_stringIcSt11char_traitsIcESaIcEEERK6cmList(ptr nocapture nonnull readnone align 8 %0, ptr noundef nonnull align 8 dereferenceable(32) %1, ptr nocapture noundef nonnull readonly align 8 dereferenceable(24) %2) local_unnamed_addr #3 align 2 {
  %4 = tail call noundef nonnull align 8 dereferenceable(32) ptr @_ZNSt7__cxx1112basic_stringIcSt11char_traitsIcESaIcEEpLEPKc(ptr noundef nonnull align 8 dereferenceable(32) %1, ptr noundef nonnull @.str.22)
  %5 = load ptr, ptr %2, align 8
  %6 = getelementptr inbounds i8, ptr %2, i64 8
  %7 = load ptr, ptr %6, align 8
  %.not13 = icmp eq ptr %5, %7
  br i1 %.not13, label %._crit_edge, label %.lr.ph

.lr.ph:                                           ; preds = %3, %_ZN19cmFindLibraryHelper16RegexFromLiteralERNSt7__cxx1112basic_stringIcSt11char_traitsIcESaIcEEERKS5_.exit
  %.015 = phi ptr [ @.str.24, %_ZN19cmFindLibraryHelper16RegexFromLiteralERNSt7__cxx1112basic_stringIcSt11char_traitsIcESaIcEEERKS5_.exit ], [ @.str.23, %3 ]
  %.sroa.010.014 = phi ptr [ %17, %_ZN19cmFindLibraryHelper16RegexFromLiteralERNSt7__cxx1112basic_stringIcSt11char_traitsIcESaIcEEERKS5_.exit ], [ %5, %3 ]
  %8 = tail call noundef nonnull align 8 dereferenceable(32) ptr @_ZNSt7__cxx1112basic_stringIcSt11char_traitsIcESaIcEEpLEPKc(ptr noundef nonnull align 8 dereferenceable(32) %1, ptr noundef nonnull %.015)
  %9 = tail call ptr @_ZNKSt7__cxx1112basic_stringIcSt11char_traitsIcESaIcEE5beginEv(ptr noundef nonnull align 8 dereferenceable(32) %.sroa.010.014) #17
  %10 = tail call ptr @_ZNKSt7__cxx1112basic_stringIcSt11char_traitsIcESaIcEE3endEv(ptr noundef nonnull align 8 dereferenceable(32) %.sroa.010.014) #17
  %.not52.i = icmp eq ptr %9, %10
  br i1 %.not52.i, label %_ZN19cmFindLibraryHelper16RegexFromLiteralERNSt7__cxx1112basic_stringIcSt11char_traitsIcESaIcEEERKS5_.exit, label %.lr.ph.i

.lr.ph.i:                                         ; preds = %.lr.ph, %14
  %.sroa.049.053.i = phi ptr [ %16, %14 ], [ %9, %.lr.ph ]
  %11 = load i8, ptr %.sroa.049.053.i, align 1
  switch i8 %11, label %14 [
    i8 94, label %12
    i8 93, label %12
    i8 92, label %12
    i8 91, label %12
    i8 63, label %12
    i8 46, label %12
    i8 45, label %12
    i8 43, label %12
    i8 42, label %12
    i8 41, label %12
    i8 40, label %12
    i8 36, label %12
  ]

12:                                               ; preds = %.lr.ph.i, %.lr.ph.i, %.lr.ph.i, %.lr.ph.i, %.lr.ph.i, %.lr.ph.i, %.lr.ph.i, %.lr.ph.i, %.lr.ph.i, %.lr.ph.i, %.lr.ph.i, %.lr.ph.i
  %13 = tail call noundef nonnull align 8 dereferenceable(32) ptr @_ZNSt7__cxx1112basic_stringIcSt11char_traitsIcESaIcEEpLEPKc(ptr noundef nonnull align 8 dereferenceable(32) %1, ptr noundef nonnull @.str.21)
  br label %14

14:                                               ; preds = %12, %.lr.ph.i
  %15 = tail call noundef nonnull align 8 dereferenceable(32) ptr @_ZNSt7__cxx1112basic_stringIcSt11char_traitsIcESaIcEEpLEc(ptr noundef nonnull align 8 dereferenceable(32) %1, i8 noundef signext %11)
  %16 = getelementptr inbounds i8, ptr %.sroa.049.053.i, i64 1
  %.not.i = icmp eq ptr %16, %10
  br i1 %.not.i, label %_ZN19cmFindLibraryHelper16RegexFromLiteralERNSt7__cxx1112basic_stringIcSt11char_traitsIcESaIcEEERKS5_.exit, label %.lr.ph.i

_ZN19cmFindLibraryHelper16RegexFromLiteralERNSt7__cxx1112basic_stringIcSt11char_traitsIcESaIcEEERKS5_.exit: ; preds = %14, %.lr.ph
  %17 = getelementptr inbounds i8, ptr %.sroa.010.014, i64 32
  %.not = icmp eq ptr %17, %7
  br i1 %.not, label %._crit_edge, label %.lr.ph

._crit_edge:                                      ; preds = %_ZN19cmFindLibraryHelper16RegexFromLiteralERNSt7__cxx1112basic_stringIcSt11char_traitsIcESaIcEEERKS5_.exit, %3
  %18 = tail call noundef nonnull align 8 dereferenceable(32) ptr @_ZNSt7__cxx1112basic_stringIcSt11char_traitsIcESaIcEEpLEPKc(ptr noundef nonnull align 8 dereferenceable(32) %1, ptr noundef nonnull @.str.25)
  ret void
}